target datalayout = "e-m:e-p270:32:32-p271:32:32-p272:64:64-i64:64-i128:128-f80:128-n8:16:32:64-S128"
target triple = "x86_64-pc-linux-gnu"

%struct._zend_array = type { %struct._zend_refcounted_h, %union.anon.0, i32, %union.anon.1, i32, i32, i32, i32, i64, ptr }
%struct._zend_refcounted_h = type { i32, %union.anon }
%union.anon = type { i32 }
%union.anon.0 = type { i32 }
%union.anon.1 = type { ptr }
%struct._zval_struct = type { %union._zend_value, %union.anon.3, %union.anon.6 }
%union._zend_value = type { i64 }
%union.anon.3 = type { i32 }
%union.anon.6 = type { i32 }
%struct._php_basic_globals = type { ptr, %struct._zend_array, ptr, ptr, i8, ptr, [256 x i8], i64, %struct._zend_fcall_info, %struct._zend_fcall_info_cache, ptr, %struct._zval_struct, %struct._zval_struct, i64, i64, i64, i64, ptr, ptr, %struct._php_stream_statbuf, %struct._php_stream_statbuf, ptr, i32, %struct.anon.7, %struct.anon.8, %struct.url_adapt_state_ex_t, %struct._zend_array, %struct.url_adapt_state_ex_t, %struct._zend_array, ptr, i32, i64 }
%struct._zend_fcall_info = type { i64, %struct._zval_struct, ptr, ptr, ptr, i32, ptr }
%struct._zend_fcall_info_cache = type { ptr, ptr, ptr, ptr, ptr }
%struct._php_stream_statbuf = type { %struct.stat }
%struct.stat = type { i64, i64, i64, i32, i32, i32, i32, i64, i64, i64, i64, %struct.timespec, %struct.timespec, %struct.timespec, [3 x i64] }
%struct.timespec = type { i64, i64 }
%struct.anon.7 = type { ptr, i32 }
%struct.anon.8 = type { ptr, i32 }
%struct.url_adapt_state_ex_t = type { %struct.smart_str, %struct.smart_str, %struct.smart_str, %struct.smart_str, %struct.smart_str, %struct.smart_str, %struct.smart_str, i32, ptr, i32, i32, %struct.smart_str, i32, i32, ptr }
%struct.smart_str = type { ptr, i64 }

@basic_globals = external global %struct._php_basic_globals, align 8

; Function Attrs: nounwind uwtable
define internal i32 @php_url_scanner_ex_deactivate(i32 noundef %0) #0 {
  %2 = alloca ptr, align 8
  %3 = alloca i32, align 4
  %4 = alloca ptr, align 8
  %5 = alloca i8, align 1
  %6 = alloca ptr, align 8
  %7 = alloca i8, align 1
  %8 = alloca ptr, align 8
  %9 = alloca i32, align 4
  %10 = alloca ptr, align 8
  %11 = alloca i8, align 1
  %12 = alloca ptr, align 8
  %13 = alloca i8, align 1
  %14 = alloca ptr, align 8
  %15 = alloca i32, align 4
  %16 = alloca ptr, align 8
  %17 = alloca i8, align 1
  %18 = alloca ptr, align 8
  %19 = alloca i8, align 1
  %20 = alloca ptr, align 8
  %21 = alloca i32, align 4
  %22 = alloca ptr, align 8
  %23 = alloca i8, align 1
  %24 = alloca ptr, align 8
  %25 = alloca i8, align 1
  %26 = alloca ptr, align 8
  %27 = alloca i32, align 4
  %28 = alloca ptr, align 8
  %29 = alloca i8, align 1
  %30 = alloca ptr, align 8
  %31 = alloca i8, align 1
  %32 = alloca ptr, align 8
  %33 = alloca ptr, align 8
  %34 = alloca ptr, align 8
  %35 = alloca ptr, align 8
  %36 = alloca ptr, align 8
  %37 = alloca i32, align 4
  %38 = alloca ptr, align 8
  store i32 %0, ptr %37, align 4
  %39 = load i32, ptr %37, align 4
  %40 = icmp ne i32 %39, 0
  br i1 %40, label %41, label %42

41:                                               ; preds = %1
  store ptr getelementptr inbounds (%struct._php_basic_globals, ptr @basic_globals, i32 0, i32 25), ptr %38, align 8
  br label %43

42:                                               ; preds = %1
  store ptr getelementptr inbounds (%struct._php_basic_globals, ptr @basic_globals, i32 0, i32 27), ptr %38, align 8
  br label %43

43:                                               ; preds = %42, %41
  %44 = load ptr, ptr %38, align 8
  %45 = getelementptr inbounds %struct.url_adapt_state_ex_t, ptr %44, i32 0, i32 4
  store ptr %45, ptr %32, align 8
  %46 = load ptr, ptr %32, align 8
  store ptr %46, ptr %30, align 8
  store i8 0, ptr %31, align 1
  %47 = load ptr, ptr %30, align 8
  %48 = load ptr, ptr %47, align 8
  %49 = icmp ne ptr %48, null
  br i1 %49, label %50, label %83

50:                                               ; preds = %43
  %51 = load ptr, ptr %30, align 8
  %52 = load ptr, ptr %51, align 8
  %53 = load i8, ptr %31, align 1
  %54 = trunc i8 %53 to i1
  store ptr %52, ptr %28, align 8
  %55 = zext i1 %54 to i8
  store i8 %55, ptr %29, align 1
  %56 = load ptr, ptr %28, align 8
  %57 = getelementptr inbounds %struct._zend_refcounted_h, ptr %56, i32 0, i32 1
  %58 = load i32, ptr %57, align 4
  store i32 %58, ptr %27, align 4
  %59 = load i32, ptr %27, align 4
  %60 = and i32 %59, 1008
  %61 = and i32 %60, 64
  %62 = icmp ne i32 %61, 0
  br i1 %62, label %81, label %63

63:                                               ; preds = %50
  %64 = load ptr, ptr %28, align 8
  store ptr %64, ptr %26, align 8
  %65 = load ptr, ptr %26, align 8
  %66 = load i32, ptr %65, align 4
  %67 = icmp ugt i32 %66, 0
  call void @llvm.assume(i1 %67)
  %68 = load ptr, ptr %26, align 8
  %69 = load i32, ptr %68, align 4
  %70 = add i32 %69, -1
  store i32 %70, ptr %68, align 4
  %71 = icmp eq i32 %70, 0
  br i1 %71, label %72, label %80

72:                                               ; preds = %63
  %73 = load i8, ptr %29, align 1
  %74 = trunc i8 %73 to i1
  br i1 %74, label %75, label %77

75:                                               ; preds = %72
  %76 = load ptr, ptr %28, align 8
  call void @free(ptr noundef %76) #10
  br label %79

77:                                               ; preds = %72
  %78 = load ptr, ptr %28, align 8
  call void @_efree(ptr noundef %78) #10
  br label %79

79:                                               ; preds = %77, %75
  br label %80

80:                                               ; preds = %79, %63
  br label %81

81:                                               ; preds = %80, %50
  %82 = load ptr, ptr %30, align 8
  store ptr null, ptr %82, align 8
  br label %83

83:                                               ; preds = %81, %43
  %84 = load ptr, ptr %30, align 8
  %85 = getelementptr inbounds %struct.smart_str, ptr %84, i32 0, i32 1
  store i64 0, ptr %85, align 8
  %86 = load ptr, ptr %38, align 8
  %87 = getelementptr inbounds %struct.url_adapt_state_ex_t, ptr %86, i32 0, i32 3
  store ptr %87, ptr %33, align 8
  %88 = load ptr, ptr %33, align 8
  store ptr %88, ptr %24, align 8
  store i8 0, ptr %25, align 1
  %89 = load ptr, ptr %24, align 8
  %90 = load ptr, ptr %89, align 8
  %91 = icmp ne ptr %90, null
  br i1 %91, label %92, label %125

92:                                               ; preds = %83
  %93 = load ptr, ptr %24, align 8
  %94 = load ptr, ptr %93, align 8
  %95 = load i8, ptr %25, align 1
  %96 = trunc i8 %95 to i1
  store ptr %94, ptr %22, align 8
  %97 = zext i1 %96 to i8
  store i8 %97, ptr %23, align 1
  %98 = load ptr, ptr %22, align 8
  %99 = getelementptr inbounds %struct._zend_refcounted_h, ptr %98, i32 0, i32 1
  %100 = load i32, ptr %99, align 4
  store i32 %100, ptr %21, align 4
  %101 = load i32, ptr %21, align 4
  %102 = and i32 %101, 1008
  %103 = and i32 %102, 64
  %104 = icmp ne i32 %103, 0
  br i1 %104, label %123, label %105

105:                                              ; preds = %92
  %106 = load ptr, ptr %22, align 8
  store ptr %106, ptr %20, align 8
  %107 = load ptr, ptr %20, align 8
  %108 = load i32, ptr %107, align 4
  %109 = icmp ugt i32 %108, 0
  call void @llvm.assume(i1 %109)
  %110 = load ptr, ptr %20, align 8
  %111 = load i32, ptr %110, align 4
  %112 = add i32 %111, -1
  store i32 %112, ptr %110, align 4
  %113 = icmp eq i32 %112, 0
  br i1 %113, label %114, label %122

114:                                              ; preds = %105
  %115 = load i8, ptr %23, align 1
  %116 = trunc i8 %115 to i1
  br i1 %116, label %117, label %119

117:                                              ; preds = %114
  %118 = load ptr, ptr %22, align 8
  call void @free(ptr noundef %118) #10
  br label %121

119:                                              ; preds = %114
  %120 = load ptr, ptr %22, align 8
  call void @_efree(ptr noundef %120) #10
  br label %121

121:                                              ; preds = %119, %117
  br label %122

122:                                              ; preds = %121, %105
  br label %123

123:                                              ; preds = %122, %92
  %124 = load ptr, ptr %24, align 8
  store ptr null, ptr %124, align 8
  br label %125

125:                                              ; preds = %123, %83
  %126 = load ptr, ptr %24, align 8
  %127 = getelementptr inbounds %struct.smart_str, ptr %126, i32 0, i32 1
  store i64 0, ptr %127, align 8
  %128 = load ptr, ptr %38, align 8
  %129 = getelementptr inbounds %struct.url_adapt_state_ex_t, ptr %128, i32 0, i32 0
  store ptr %129, ptr %34, align 8
  %130 = load ptr, ptr %34, align 8
  store ptr %130, ptr %18, align 8
  store i8 0, ptr %19, align 1
  %131 = load ptr, ptr %18, align 8
  %132 = load ptr, ptr %131, align 8
  %133 = icmp ne ptr %132, null
  br i1 %133, label %134, label %167

134:                                              ; preds = %125
  %135 = load ptr, ptr %18, align 8
  %136 = load ptr, ptr %135, align 8
  %137 = load i8, ptr %19, align 1
  %138 = trunc i8 %137 to i1
  store ptr %136, ptr %16, align 8
  %139 = zext i1 %138 to i8
  store i8 %139, ptr %17, align 1
  %140 = load ptr, ptr %16, align 8
  %141 = getelementptr inbounds %struct._zend_refcounted_h, ptr %140, i32 0, i32 1
  %142 = load i32, ptr %141, align 4
  store i32 %142, ptr %15, align 4
  %143 = load i32, ptr %15, align 4
  %144 = and i32 %143, 1008
  %145 = and i32 %144, 64
  %146 = icmp ne i32 %145, 0
  br i1 %146, label %165, label %147

147:                                              ; preds = %134
  %148 = load ptr, ptr %16, align 8
  store ptr %148, ptr %14, align 8
  %149 = load ptr, ptr %14, align 8
  %150 = load i32, ptr %149, align 4
  %151 = icmp ugt i32 %150, 0
  call void @llvm.assume(i1 %151)
  %152 = load ptr, ptr %14, align 8
  %153 = load i32, ptr %152, align 4
  %154 = add i32 %153, -1
  store i32 %154, ptr %152, align 4
  %155 = icmp eq i32 %154, 0
  br i1 %155, label %156, label %164

156:                                              ; preds = %147
  %157 = load i8, ptr %17, align 1
  %158 = trunc i8 %157 to i1
  br i1 %158, label %159, label %161

159:                                              ; preds = %156
  %160 = load ptr, ptr %16, align 8
  call void @free(ptr noundef %160) #10
  br label %163

161:                                              ; preds = %156
  %162 = load ptr, ptr %16, align 8
  call void @_efree(ptr noundef %162) #10
  br label %163

163:                                              ; preds = %161, %159
  br label %164

164:                                              ; preds = %163, %147
  br label %165

165:                                              ; preds = %164, %134
  %166 = load ptr, ptr %18, align 8
  store ptr null, ptr %166, align 8
  br label %167

167:                                              ; preds = %165, %125
  %168 = load ptr, ptr %18, align 8
  %169 = getelementptr inbounds %struct.smart_str, ptr %168, i32 0, i32 1
  store i64 0, ptr %169, align 8
  %170 = load ptr, ptr %38, align 8
  %171 = getelementptr inbounds %struct.url_adapt_state_ex_t, ptr %170, i32 0, i32 1
  store ptr %171, ptr %35, align 8
  %172 = load ptr, ptr %35, align 8
  store ptr %172, ptr %12, align 8
  store i8 0, ptr %13, align 1
  %173 = load ptr, ptr %12, align 8
  %174 = load ptr, ptr %173, align 8
  %175 = icmp ne ptr %174, null
  br i1 %175, label %176, label %209

176:                                              ; preds = %167
  %177 = load ptr, ptr %12, align 8
  %178 = load ptr, ptr %177, align 8
  %179 = load i8, ptr %13, align 1
  %180 = trunc i8 %179 to i1
  store ptr %178, ptr %10, align 8
  %181 = zext i1 %180 to i8
  store i8 %181, ptr %11, align 1
  %182 = load ptr, ptr %10, align 8
  %183 = getelementptr inbounds %struct._zend_refcounted_h, ptr %182, i32 0, i32 1
  %184 = load i32, ptr %183, align 4
  store i32 %184, ptr %9, align 4
  %185 = load i32, ptr %9, align 4
  %186 = and i32 %185, 1008
  %187 = and i32 %186, 64
  %188 = icmp ne i32 %187, 0
  br i1 %188, label %207, label %189

189:                                              ; preds = %176
  %190 = load ptr, ptr %10, align 8
  store ptr %190, ptr %8, align 8
  %191 = load ptr, ptr %8, align 8
  %192 = load i32, ptr %191, align 4
  %193 = icmp ugt i32 %192, 0
  call void @llvm.assume(i1 %193)
  %194 = load ptr, ptr %8, align 8
  %195 = load i32, ptr %194, align 4
  %196 = add i32 %195, -1
  store i32 %196, ptr %194, align 4
  %197 = icmp eq i32 %196, 0
  br i1 %197, label %198, label %206

198:                                              ; preds = %189
  %199 = load i8, ptr %11, align 1
  %200 = trunc i8 %199 to i1
  br i1 %200, label %201, label %203

201:                                              ; preds = %198
  %202 = load ptr, ptr %10, align 8
  call void @free(ptr noundef %202) #10
  br label %205

203:                                              ; preds = %198
  %204 = load ptr, ptr %10, align 8
  call void @_efree(ptr noundef %204) #10
  br label %205

205:                                              ; preds = %203, %201
  br label %206

206:                                              ; preds = %205, %189
  br label %207

207:                                              ; preds = %206, %176
  %208 = load ptr, ptr %12, align 8
  store ptr null, ptr %208, align 8
  br label %209

209:                                              ; preds = %207, %167
  %210 = load ptr, ptr %12, align 8
  %211 = getelementptr inbounds %struct.smart_str, ptr %210, i32 0, i32 1
  store i64 0, ptr %211, align 8
  %212 = load ptr, ptr %38, align 8
  %213 = getelementptr inbounds %struct.url_adapt_state_ex_t, ptr %212, i32 0, i32 11
  store ptr %213, ptr %36, align 8
  %214 = load ptr, ptr %36, align 8
  store ptr %214, ptr %6, align 8
  store i8 0, ptr %7, align 1
  %215 = load ptr, ptr %6, align 8
  %216 = load ptr, ptr %215, align 8
  %217 = icmp ne ptr %216, null
  br i1 %217, label %218, label %251

218:                                              ; preds = %209
  %219 = load ptr, ptr %6, align 8
  %220 = load ptr, ptr %219, align 8
  %221 = load i8, ptr %7, align 1
  %222 = trunc i8 %221 to i1
  store ptr %220, ptr %4, align 8
  %223 = zext i1 %222 to i8
  store i8 %223, ptr %5, align 1
  %224 = load ptr, ptr %4, align 8
  %225 = getelementptr inbounds %struct._zend_refcounted_h, ptr %224, i32 0, i32 1
  %226 = load i32, ptr %225, align 4
  store i32 %226, ptr %3, align 4
  %227 = load i32, ptr %3, align 4
  %228 = and i32 %227, 1008
  %229 = and i32 %228, 64
  %230 = icmp ne i32 %229, 0
  br i1 %230, label %249, label %231

231:                                              ; preds = %218
  %232 = load ptr, ptr %4, align 8
  store ptr %232, ptr %2, align 8
  %233 = load ptr, ptr %2, align 8
  %234 = load i32, ptr %233, align 4
  %235 = icmp ugt i32 %234, 0
  call void @llvm.assume(i1 %235)
  %236 = load ptr, ptr %2, align 8
  %237 = load i32, ptr %236, align 4
  %238 = add i32 %237, -1
  store i32 %238, ptr %236, align 4
  %239 = icmp eq i32 %238, 0
  br i1 %239, label %240, label %248

240:                                              ; preds = %231
  %241 = load i8, ptr %5, align 1
  %242 = trunc i8 %241 to i1
  br i1 %242, label %243, label %245

243:                                              ; preds = %240
  %244 = load ptr, ptr %4, align 8
  call void @free(ptr noundef %244) #10
  br label %247

245:                                              ; preds = %240
  %246 = load ptr, ptr %4, align 8
  call void @_efree(ptr noundef %246) #10
  br label %247

247:                                              ; preds = %245, %243
  br label %248

248:                                              ; preds = %247, %231
  br label %249

249:                                              ; preds = %248, %218
  %250 = load ptr, ptr %6, align 8
  store ptr null, ptr %250, align 8
  br label %251

251:                                              ; preds = %249, %209
  %252 = load ptr, ptr %6, align 8
  %253 = getelementptr inbounds %struct.smart_str, ptr %252, i32 0, i32 1
  store i64 0, ptr %253, align 8
  ret i32 0
}