; Function Attrs: nounwind uwtable
define internal fastcc void @php_url_scanner_ex_deactivate(i32 noundef %0) unnamed_addr #0 {
  %.not = icmp eq i32 %0, 0
  %. = select i1 %.not, ptr getelementptr inbounds (%struct._php_basic_globals, ptr @basic_globals, i64 0, i32 27), ptr getelementptr inbounds (%struct._php_basic_globals, ptr @basic_globals, i64 0, i32 25)
  %2 = select i1 %.not, ptr getelementptr inbounds (%struct._php_basic_globals, ptr @basic_globals, i64 0, i32 27, i32 4, i32 0), ptr getelementptr inbounds (%struct._php_basic_globals, ptr @basic_globals, i64 0, i32 25, i32 4, i32 0)
  %3 = load ptr, ptr %2, align 8
  %.not80 = icmp eq ptr %3, null
  br i1 %.not80, label %15, label %4

4:                                                ; preds = %1
  %5 = getelementptr inbounds i8, ptr %3, i64 4
  %6 = load i32, ptr %5, align 4
  %7 = and i32 %6, 64
  %.not81 = icmp eq i32 %7, 0
  br i1 %.not81, label %8, label %14

8:                                                ; preds = %4
  %9 = load i32, ptr %3, align 4
  %10 = icmp ne i32 %9, 0
  tail call void @llvm.assume(i1 %10)
  %11 = add i32 %9, -1
  store i32 %11, ptr %3, align 4
  %12 = icmp eq i32 %11, 0
  br i1 %12, label %13, label %14

13:                                               ; preds = %8
  tail call void @_efree(ptr noundef nonnull %3) #16
  br label %14

14:                                               ; preds = %8, %13, %4
  store ptr null, ptr %2, align 8
  br label %15

15:                                               ; preds = %14, %1
  %16 = select i1 %.not, ptr getelementptr inbounds (%struct._php_basic_globals, ptr @basic_globals, i64 0, i32 27, i32 4, i32 1), ptr getelementptr inbounds (%struct._php_basic_globals, ptr @basic_globals, i64 0, i32 25, i32 4, i32 1)
  store i64 0, ptr %16, align 8
  %17 = select i1 %.not, ptr getelementptr inbounds (%struct._php_basic_globals, ptr @basic_globals, i64 0, i32 27, i32 3, i32 0), ptr getelementptr inbounds (%struct._php_basic_globals, ptr @basic_globals, i64 0, i32 25, i32 3, i32 0)
  %18 = load ptr, ptr %17, align 8
  %.not82 = icmp eq ptr %18, null
  br i1 %.not82, label %30, label %19

19:                                               ; preds = %15
  %20 = getelementptr inbounds i8, ptr %18, i64 4
  %21 = load i32, ptr %20, align 4
  %22 = and i32 %21, 64
  %.not83 = icmp eq i32 %22, 0
  br i1 %.not83, label %23, label %29

23:                                               ; preds = %19
  %24 = load i32, ptr %18, align 4
  %25 = icmp ne i32 %24, 0
  tail call void @llvm.assume(i1 %25)
  %26 = add i32 %24, -1
  store i32 %26, ptr %18, align 4
  %27 = icmp eq i32 %26, 0
  br i1 %27, label %28, label %29

28:                                               ; preds = %23
  tail call void @_efree(ptr noundef nonnull %18) #16
  br label %29

29:                                               ; preds = %23, %28, %19
  store ptr null, ptr %17, align 8
  br label %30

30:                                               ; preds = %29, %15
  %31 = select i1 %.not, ptr getelementptr inbounds (%struct._php_basic_globals, ptr @basic_globals, i64 0, i32 27, i32 3, i32 1), ptr getelementptr inbounds (%struct._php_basic_globals, ptr @basic_globals, i64 0, i32 25, i32 3, i32 1)
  store i64 0, ptr %31, align 8
  %32 = load ptr, ptr %., align 8
  %.not84 = icmp eq ptr %32, null
  br i1 %.not84, label %44, label %33

33:                                               ; preds = %30
  %34 = getelementptr inbounds i8, ptr %32, i64 4
  %35 = load i32, ptr %34, align 4
  %36 = and i32 %35, 64
  %.not85 = icmp eq i32 %36, 0
  br i1 %.not85, label %37, label %43

37:                                               ; preds = %33
  %38 = load i32, ptr %32, align 4
  %39 = icmp ne i32 %38, 0
  tail call void @llvm.assume(i1 %39)
  %40 = add i32 %38, -1
  store i32 %40, ptr %32, align 4
  %41 = icmp eq i32 %40, 0
  br i1 %41, label %42, label %43

42:                                               ; preds = %37
  tail call void @_efree(ptr noundef nonnull %32) #16
  br label %43

43:                                               ; preds = %37, %42, %33
  store ptr null, ptr %., align 8
  br label %44

44:                                               ; preds = %43, %30
  %45 = select i1 %.not, ptr getelementptr inbounds (%struct._php_basic_globals, ptr @basic_globals, i64 0, i32 27, i32 0, i32 1), ptr getelementptr inbounds (%struct._php_basic_globals, ptr @basic_globals, i64 0, i32 25, i32 0, i32 1)
  store i64 0, ptr %45, align 8
  %46 = select i1 %.not, ptr getelementptr inbounds (%struct._php_basic_globals, ptr @basic_globals, i64 0, i32 27, i32 1, i32 0), ptr getelementptr inbounds (%struct._php_basic_globals, ptr @basic_globals, i64 0, i32 25, i32 1, i32 0)
  %47 = load ptr, ptr %46, align 8
  %.not86 = icmp eq ptr %47, null
  br i1 %.not86, label %59, label %48

48:                                               ; preds = %44
  %49 = getelementptr inbounds i8, ptr %47, i64 4
  %50 = load i32, ptr %49, align 4
  %51 = and i32 %50, 64
  %.not87 = icmp eq i32 %51, 0
  br i1 %.not87, label %52, label %58

52:                                               ; preds = %48
  %53 = load i32, ptr %47, align 4
  %54 = icmp ne i32 %53, 0
  tail call void @llvm.assume(i1 %54)
  %55 = add i32 %53, -1
  store i32 %55, ptr %47, align 4
  %56 = icmp eq i32 %55, 0
  br i1 %56, label %57, label %58

57:                                               ; preds = %52
  tail call void @_efree(ptr noundef nonnull %47) #16
  br label %58

58:                                               ; preds = %52, %57, %48
  store ptr null, ptr %46, align 8
  br label %59

59:                                               ; preds = %58, %44
  %60 = select i1 %.not, ptr getelementptr inbounds (%struct._php_basic_globals, ptr @basic_globals, i64 0, i32 27, i32 1, i32 1), ptr getelementptr inbounds (%struct._php_basic_globals, ptr @basic_globals, i64 0, i32 25, i32 1, i32 1)
  store i64 0, ptr %60, align 8
  %61 = select i1 %.not, ptr getelementptr inbounds (%struct._php_basic_globals, ptr @basic_globals, i64 0, i32 27, i32 11, i32 0), ptr getelementptr inbounds (%struct._php_basic_globals, ptr @basic_globals, i64 0, i32 25, i32 11, i32 0)
  %62 = load ptr, ptr %61, align 8
  %.not88 = icmp eq ptr %62, null
  br i1 %.not88, label %74, label %63

63:                                               ; preds = %59
  %64 = getelementptr inbounds i8, ptr %62, i64 4
  %65 = load i32, ptr %64, align 4
  %66 = and i32 %65, 64
  %.not89 = icmp eq i32 %66, 0
  br i1 %.not89, label %67, label %73

67:                                               ; preds = %63
  %68 = load i32, ptr %62, align 4
  %69 = icmp ne i32 %68, 0
  tail call void @llvm.assume(i1 %69)
  %70 = add i32 %68, -1
  store i32 %70, ptr %62, align 4
  %71 = icmp eq i32 %70, 0
  br i1 %71, label %72, label %73

72:                                               ; preds = %67
  tail call void @_efree(ptr noundef nonnull %62) #16
  br label %73

73:                                               ; preds = %67, %72, %63
  store ptr null, ptr %61, align 8
  br label %74

74:                                               ; preds = %73, %59
  %75 = select i1 %.not, ptr getelementptr inbounds (%struct._php_basic_globals, ptr @basic_globals, i64 0, i32 27, i32 11, i32 1), ptr getelementptr inbounds (%struct._php_basic_globals, ptr @basic_globals, i64 0, i32 25, i32 11, i32 1)
  store i64 0, ptr %75, align 8
  ret void
}